	.section	__TEXT,__text,regular,pure_instructions
	.file	1 "/Users/guyvo/Documents/Performance/main.c"
	.file	2 "/Users/guyvo/Documents/Performance/PerformanceTest/main.c"
	.section	__TEXT,__text,regular,pure_instructions
Ltext_begin:
	.section	__DATA,__data
	.section	__TEXT,__literal8,8byte_literals
	.align	3
LCPI0_0:
	.quad	4985484787500187648     ## double 1.934281e+25
LCPI0_1:
	.quad	4614256656552045848     ## double 3.141593e+00
	.section	__TEXT,__literal4,4byte_literals
	.align	2
LCPI0_2:
	.long	1593835520              ## float 9.223372e+18
	.section	__TEXT,__text,regular,pure_instructions
	.globl	_Inc
	.align	4, 0x90
_Inc:                                   ## @Inc
Ltmp3:
	.cfi_startproc
Lfunc_begin0:
	.loc	2 24 0                  ## /Users/guyvo/Documents/Performance/PerformanceTest/main.c:24:0
## BB#0:
	pushq	%rbp
Ltmp4:
	.cfi_def_cfa_offset 16
Ltmp5:
	.cfi_offset %rbp, -16
	movq	%rsp, %rbp
Ltmp6:
	.cfi_def_cfa_register %rbp
	pushq	%r15
	pushq	%r14
	pushq	%r13
	pushq	%r12
	pushq	%rbx
	subq	$24, %rsp
Ltmp7:
	.cfi_offset %rbx, -56
Ltmp8:
	.cfi_offset %r12, -48
Ltmp9:
	.cfi_offset %r13, -40
Ltmp10:
	.cfi_offset %r14, -32
Ltmp11:
	.cfi_offset %r15, -24
	##DEBUG_VALUE: Inc:id <- RDI+0
	movq	%rdi, %r12
Ltmp12:
	##DEBUG_VALUE: Count <- 0+0
	##DEBUG_VALUE: Inc:id <- R12+0
	.loc	2 27 30 prologue_end    ## /Users/guyvo/Documents/Performance/PerformanceTest/main.c:27:30
	movq	$0, -48(%rbp)
	.loc	2 29 5                  ## /Users/guyvo/Documents/Performance/PerformanceTest/main.c:29:5
	leaq	L_.str(%rip), %rdi
	movq	%r12, %rsi
	xorb	%al, %al
	callq	_printf
	.loc	2 31 5                  ## /Users/guyvo/Documents/Performance/PerformanceTest/main.c:31:5
	callq	_mach_absolute_time
	movq	%rax, -56(%rbp)         ## 8-byte Spill
Ltmp13:
	##DEBUG_VALUE: start <- [%rbp+$-56]+$0
	movl	$1000000000, %r15d      ## imm = 0x3B9ACA00
Ltmp14:
	##DEBUG_VALUE: i <- 0+0
	movabsq	$4985484787499139072, %r13 ## imm = 0x4530000000000000
	movabsq	$4841369599423283200, %rbx ## imm = 0x4330000000000000
	movabsq	$-9223372036854775808, %r14 ## imm = 0x8000000000000000
	.align	4, 0x90
LBB0_1:                                 ## =>This Inner Loop Header: Depth=1
	##DEBUG_VALUE: Inc:id <- R12+0
	##DEBUG_VALUE: Count <- 0+0
	##DEBUG_VALUE: start <- [%rbp+$-56]+$0
	##DEBUG_VALUE: i <- 0+0
	.loc	2 37 5                  ## /Users/guyvo/Documents/Performance/PerformanceTest/main.c:37:5
	movq	-48(%rbp), %rax
	movq	%rax, %rcx
	shrq	$32, %rcx
	orq	%r13, %rcx
	movd	%rcx, %xmm0
	subsd	LCPI0_0(%rip), %xmm0
	movl	%eax, %eax
	orq	%rbx, %rax
	movd	%rax, %xmm1
	addsd	%xmm0, %xmm1
	mulsd	LCPI0_1(%rip), %xmm1
	cvtsd2ss	%xmm1, %xmm0
	callq	_sinf
	movaps	%xmm0, %xmm1
	movss	LCPI0_2(%rip), %xmm2
	subss	%xmm2, %xmm1
	cvttss2siq	%xmm1, %rcx
	xorq	%r14, %rcx
	cvttss2siq	%xmm0, %rax
	ucomiss	%xmm2, %xmm0
	cmovaeq	%rcx, %rax
Ltmp15:
	##DEBUG_VALUE: Count <- RAX+0
	decl	%r15d
	movq	%rax, -48(%rbp)
	jne	LBB0_1
Ltmp16:
## BB#2:
	##DEBUG_VALUE: Inc:id <- R12+0
	##DEBUG_VALUE: start <- [%rbp+$-56]+$0
	##DEBUG_VALUE: i <- 0+0
	.loc	2 39 5                  ## /Users/guyvo/Documents/Performance/PerformanceTest/main.c:39:5
	callq	_mach_absolute_time
Ltmp17:
	##DEBUG_VALUE: end <- RAX+0
	.loc	2 41 5                  ## /Users/guyvo/Documents/Performance/PerformanceTest/main.c:41:5
	subq	-56(%rbp), %rax         ## 8-byte Folded Reload
Ltmp18:
	movq	-48(%rbp), %rsi
	leaq	L_.str1(%rip), %rdi
	movq	%rax, %rdx
	movq	%r12, %rcx
	xorb	%al, %al
	callq	_printf
	xorl	%edi, %edi
	.loc	2 43 5                  ## /Users/guyvo/Documents/Performance/PerformanceTest/main.c:43:5
	callq	_pthread_exit
Ltmp19:
Lfunc_end0:
Ltmp20:
	.cfi_endproc
Leh_func_end0:

	.globl	_main
	.align	4, 0x90
_main:                                  ## @main
Ltmp24:
	.cfi_startproc
Lfunc_begin1:
	.loc	2 48 0                  ## /Users/guyvo/Documents/Performance/PerformanceTest/main.c:48:0
## BB#0:
	pushq	%rbp
Ltmp25:
	.cfi_def_cfa_offset 16
Ltmp26:
	.cfi_offset %rbp, -16
	movq	%rsp, %rbp
Ltmp27:
	.cfi_def_cfa_register %rbp
	.loc	2 53 5 prologue_end     ## /Users/guyvo/Documents/Performance/PerformanceTest/main.c:53:5
Ltmp28:
	pushq	%r14
	pushq	%rbx
	subq	$64, %rsp
Ltmp29:
	.cfi_offset %rbx, -32
Ltmp30:
	.cfi_offset %r14, -24
	##DEBUG_VALUE: main:argc <- EDI+0
	##DEBUG_VALUE: main:argv <- RSI+0
	callq	_mach_absolute_time
Ltmp31:
	movq	%rax, %r14
Ltmp32:
	##DEBUG_VALUE: start <- R14+0
	.loc	2 62 5                  ## /Users/guyvo/Documents/Performance/PerformanceTest/main.c:62:5
	leaq	_str(%rip), %rdi
	callq	_puts
	leaq	-24(%rbp), %rdi
Ltmp33:
	##DEBUG_VALUE: t1 <- RDI+0
	.loc	2 64 5                  ## /Users/guyvo/Documents/Performance/PerformanceTest/main.c:64:5
	leaq	_Inc(%rip), %rbx
	xorl	%esi, %esi
	movq	%rbx, %rdx
	movl	$1, %ecx
	callq	_pthread_create
Ltmp34:
	leaq	-32(%rbp), %rdi
Ltmp35:
	##DEBUG_VALUE: t2 <- RDI+0
	xorl	%esi, %esi
	.loc	2 66 5                  ## /Users/guyvo/Documents/Performance/PerformanceTest/main.c:66:5
	movq	%rbx, %rdx
	movl	$2, %ecx
	callq	_pthread_create
Ltmp36:
	leaq	-40(%rbp), %rdi
	xorl	%esi, %esi
	.loc	2 67 5                  ## /Users/guyvo/Documents/Performance/PerformanceTest/main.c:67:5
	movq	%rbx, %rdx
	movl	$3, %ecx
	callq	_pthread_create
	leaq	-48(%rbp), %rdi
	xorl	%esi, %esi
	.loc	2 68 5                  ## /Users/guyvo/Documents/Performance/PerformanceTest/main.c:68:5
	movq	%rbx, %rdx
	movl	$4, %ecx
	callq	_pthread_create
	leaq	-56(%rbp), %rdi
	xorl	%esi, %esi
	.loc	2 70 5                  ## /Users/guyvo/Documents/Performance/PerformanceTest/main.c:70:5
	movq	%rbx, %rdx
	movl	$5, %ecx
	callq	_pthread_create
	leaq	-64(%rbp), %rdi
	xorl	%esi, %esi
	.loc	2 71 5                  ## /Users/guyvo/Documents/Performance/PerformanceTest/main.c:71:5
	movq	%rbx, %rdx
	movl	$6, %ecx
	callq	_pthread_create
	leaq	-72(%rbp), %rdi
	xorl	%esi, %esi
	.loc	2 72 5                  ## /Users/guyvo/Documents/Performance/PerformanceTest/main.c:72:5
	movq	%rbx, %rdx
	movl	$7, %ecx
	callq	_pthread_create
	leaq	-80(%rbp), %rdi
	xorl	%esi, %esi
	.loc	2 73 5                  ## /Users/guyvo/Documents/Performance/PerformanceTest/main.c:73:5
	movq	%rbx, %rdx
	movl	$8, %ecx
	callq	_pthread_create
	.loc	2 76 5                  ## /Users/guyvo/Documents/Performance/PerformanceTest/main.c:76:5
	movq	-24(%rbp), %rdi
	xorl	%esi, %esi
	callq	_pthread_join
	.loc	2 78 5                  ## /Users/guyvo/Documents/Performance/PerformanceTest/main.c:78:5
	movq	-32(%rbp), %rdi
	xorl	%esi, %esi
	callq	_pthread_join
	.loc	2 79 5                  ## /Users/guyvo/Documents/Performance/PerformanceTest/main.c:79:5
	movq	-40(%rbp), %rdi
Ltmp37:
	##DEBUG_VALUE: t3 <- RDI+0
	xorl	%esi, %esi
	callq	_pthread_join
Ltmp38:
	.loc	2 80 5                  ## /Users/guyvo/Documents/Performance/PerformanceTest/main.c:80:5
	movq	-48(%rbp), %rdi
Ltmp39:
	##DEBUG_VALUE: t4 <- RDI+0
	xorl	%esi, %esi
	callq	_pthread_join
Ltmp40:
	.loc	2 82 5                  ## /Users/guyvo/Documents/Performance/PerformanceTest/main.c:82:5
	movq	-56(%rbp), %rdi
Ltmp41:
	##DEBUG_VALUE: t5 <- RDI+0
	xorl	%esi, %esi
	callq	_pthread_join
Ltmp42:
	.loc	2 83 5                  ## /Users/guyvo/Documents/Performance/PerformanceTest/main.c:83:5
	movq	-64(%rbp), %rdi
Ltmp43:
	##DEBUG_VALUE: t6 <- RDI+0
	xorl	%esi, %esi
	callq	_pthread_join
Ltmp44:
	.loc	2 84 5                  ## /Users/guyvo/Documents/Performance/PerformanceTest/main.c:84:5
	movq	-72(%rbp), %rdi
Ltmp45:
	##DEBUG_VALUE: t7 <- RDI+0
	xorl	%esi, %esi
	callq	_pthread_join
Ltmp46:
	.loc	2 85 5                  ## /Users/guyvo/Documents/Performance/PerformanceTest/main.c:85:5
	movq	-80(%rbp), %rdi
Ltmp47:
	##DEBUG_VALUE: t8 <- RDI+0
	xorl	%esi, %esi
	callq	_pthread_join
Ltmp48:
	.loc	2 89 5                  ## /Users/guyvo/Documents/Performance/PerformanceTest/main.c:89:5
	callq	_mach_absolute_time
Ltmp49:
	##DEBUG_VALUE: end <- RAX+0
	.loc	2 91 5                  ## /Users/guyvo/Documents/Performance/PerformanceTest/main.c:91:5
	leaq	L_.str3(%rip), %rdi
	subq	%r14, %rax
Ltmp50:
	movq	%rax, %rsi
	xorb	%al, %al
	callq	_printf
	xorl	%edi, %edi
	.loc	2 103 5                 ## /Users/guyvo/Documents/Performance/PerformanceTest/main.c:103:5
	callq	_exit
Ltmp51:
Lfunc_end1:
	.file	3 "/Developer/SDKs/MacOSX10.7.sdk/usr/include/sys/_types.h"
	.file	4 "/Developer/SDKs/MacOSX10.7.sdk/usr/include/stdio.h"
Ltmp52:
	.cfi_endproc
Leh_func_end1:

	.section	__TEXT,__cstring,cstring_literals
L_.str:                                 ## @.str
	.asciz	 "starting thread %ld ...\n"

L_.str1:                                ## @.str1
	.asciz	 "result %llu test done in %llu for thread %ld\n"

L_.str3:                                ## @.str3
	.asciz	 "All done in %llu exit now\n"

	.section	__TEXT,__const
	.align	4                       ## @str
_str:
	.asciz	 "starting testing ..."

	.section	__TEXT,__text,regular,pure_instructions
Ltext_end:
	.section	__DATA,__data
Ldata_end:
	.section	__TEXT,__text,regular,pure_instructions
Lsection_end1: